target datalayout = "e-m:e-p270:32:32-p271:32:32-p272:64:64-i64:64-i128:128-f80:128-n8:16:32:64-S128"
target triple = "x86_64-pc-linux-gnu"

%struct.pg_conn = type { ptr, ptr, ptr, ptr, ptr, ptr, ptr, ptr, ptr, ptr, ptr, ptr, ptr, ptr, ptr, ptr, ptr, ptr, ptr, ptr, ptr, ptr, ptr, ptr, ptr, ptr, ptr, ptr, ptr, ptr, ptr, ptr, ptr, ptr, ptr, ptr, ptr, ptr, ptr, ptr, ptr, ptr, ptr, i8, ptr, i32, %struct.PGNoticeHooks, ptr, i32, i32, i32, i32, i32, [6 x i8], i8, i8, i32, i8, i8, i32, i8, i32, ptr, ptr, i32, i32, ptr, ptr, ptr, ptr, ptr, i32, %struct.SockAddr, %struct.SockAddr, i32, i32, i8, i8, i8, i8, i8, i8, ptr, i8, i32, [1 x ptr], i8, i8, ptr, ptr, i32, i32, i32, i8, i8, i32, i32, ptr, i8, i64, ptr, i64, ptr, i32, i32, ptr, i32, i8, i32, i32, i32, i32, ptr, %struct.pg_prng_state, ptr, i32, i32, i32, i32, ptr, i32, i32, i32, i32, ptr, i32, ptr, i8, ptr, ptr, ptr, i32, i8, i8, i8, i8, i8, i8, i8, i8, %struct.PQExpBufferData, i32, %struct.PQExpBufferData }
%struct.PGNoticeHooks = type { ptr, ptr, ptr, ptr }
%struct.SockAddr = type { %struct.sockaddr_storage, i32 }
%struct.sockaddr_storage = type { i16, [118 x i8], i64 }
%struct.pg_prng_state = type { i64, i64 }
%struct.PQExpBufferData = type { ptr, i64, i64 }

@.str = private unnamed_addr constant [46 x i8] c"integer of size %lu not supported by pqGetInt\00", align 1

; Function Attrs: nounwind uwtable
define i32 @pqGetInt(ptr noundef %0, i64 noundef %1, ptr noundef %2) #0 {
  %4 = alloca i32, align 4
  %5 = alloca ptr, align 8
  %6 = alloca i64, align 8
  %7 = alloca ptr, align 8
  %8 = alloca i16, align 2
  %9 = alloca i32, align 4
  %10 = alloca i32, align 4
  store ptr %0, ptr %5, align 8
  store i64 %1, ptr %6, align 8
  store ptr %2, ptr %7, align 8
  call void @llvm.lifetime.start.p0(i64 2, ptr %8) #10
  call void @llvm.lifetime.start.p0(i64 4, ptr %9) #10
  %11 = load i64, ptr %6, align 8
  switch i64 %11, label %65 [
    i64 2, label %12
    i64 4, label %39
  ]

12:                                               ; preds = %3
  %13 = load ptr, ptr %7, align 8
  %14 = getelementptr inbounds nuw %struct.pg_conn, ptr %13, i32 0, i32 117
  %15 = load i32, ptr %14, align 8
  %16 = add i32 %15, 2
  %17 = load ptr, ptr %7, align 8
  %18 = getelementptr inbounds nuw %struct.pg_conn, ptr %17, i32 0, i32 118
  %19 = load i32, ptr %18, align 4
  %20 = icmp sgt i32 %16, %19
  br i1 %20, label %21, label %22

21:                                               ; preds = %12
  store i32 -1, ptr %4, align 4
  store i32 1, ptr %10, align 4
  br label %70

22:                                               ; preds = %12
  %23 = load ptr, ptr %7, align 8
  %24 = getelementptr inbounds nuw %struct.pg_conn, ptr %23, i32 0, i32 114
  %25 = load ptr, ptr %24, align 8
  %26 = load ptr, ptr %7, align 8
  %27 = getelementptr inbounds nuw %struct.pg_conn, ptr %26, i32 0, i32 117
  %28 = load i32, ptr %27, align 8
  %29 = sext i32 %28 to i64
  %30 = getelementptr inbounds i8, ptr %25, i64 %29
  call void @llvm.memcpy.p0.p0.i64(ptr align 2 %8, ptr align 1 %30, i64 2, i1 false)
  %31 = load ptr, ptr %7, align 8
  %32 = getelementptr inbounds nuw %struct.pg_conn, ptr %31, i32 0, i32 117
  %33 = load i32, ptr %32, align 8
  %34 = add i32 %33, 2
  store i32 %34, ptr %32, align 8
  %35 = load i16, ptr %8, align 2
  %36 = call i16 @llvm.bswap.i16(i16 %35)
  %37 = zext i16 %36 to i32
  %38 = load ptr, ptr %5, align 8
  store i32 %37, ptr %38, align 4
  br label %69

39:                                               ; preds = %3
  %40 = load ptr, ptr %7, align 8
  %41 = getelementptr inbounds nuw %struct.pg_conn, ptr %40, i32 0, i32 117
  %42 = load i32, ptr %41, align 8
  %43 = add i32 %42, 4
  %44 = load ptr, ptr %7, align 8
  %45 = getelementptr inbounds nuw %struct.pg_conn, ptr %44, i32 0, i32 118
  %46 = load i32, ptr %45, align 4
  %47 = icmp sgt i32 %43, %46
  br i1 %47, label %48, label %49

48:                                               ; preds = %39
  store i32 -1, ptr %4, align 4
  store i32 1, ptr %10, align 4
  br label %70

49:                                               ; preds = %39
  %50 = load ptr, ptr %7, align 8
  %51 = getelementptr inbounds nuw %struct.pg_conn, ptr %50, i32 0, i32 114
  %52 = load ptr, ptr %51, align 8
  %53 = load ptr, ptr %7, align 8
  %54 = getelementptr inbounds nuw %struct.pg_conn, ptr %53, i32 0, i32 117
  %55 = load i32, ptr %54, align 8
  %56 = sext i32 %55 to i64
  %57 = getelementptr inbounds i8, ptr %52, i64 %56
  call void @llvm.memcpy.p0.p0.i64(ptr align 4 %9, ptr align 1 %57, i64 4, i1 false)
  %58 = load ptr, ptr %7, align 8
  %59 = getelementptr inbounds nuw %struct.pg_conn, ptr %58, i32 0, i32 117
  %60 = load i32, ptr %59, align 8
  %61 = add i32 %60, 4
  store i32 %61, ptr %59, align 8
  %62 = load i32, ptr %9, align 4
  %63 = call i32 @llvm.bswap.i32(i32 %62)
  %64 = load ptr, ptr %5, align 8
  store i32 %63, ptr %64, align 4
  br label %69

65:                                               ; preds = %3
  %66 = load ptr, ptr %7, align 8
  %67 = getelementptr inbounds nuw %struct.pg_conn, ptr %66, i32 0, i32 46
  %68 = load i64, ptr %6, align 8
  call void (ptr, ptr, ...) @pqInternalNotice(ptr noundef %67, ptr noundef @.str, i64 noundef %68)
  store i32 -1, ptr %4, align 4
  store i32 1, ptr %10, align 4
  br label %70

69:                                               ; preds = %49, %22
  store i32 0, ptr %4, align 4
  store i32 1, ptr %10, align 4
  br label %70

70:                                               ; preds = %69, %65, %48, %21
  call void @llvm.lifetime.end.p0(i64 4, ptr %9) #10
  call void @llvm.lifetime.end.p0(i64 2, ptr %8) #10
  %71 = load i32, ptr %4, align 4
  ret i32 %71
}