; Function Attrs: nounwind uwtable
define range(i32 -1, 1) i32 @pqGetInt(ptr noundef writeonly captures(none) %0, i64 noundef %1, ptr noundef %2) local_unnamed_addr #2 {
  switch i64 %1, label %31 [
    i64 2, label %4
    i64 4, label %18
  ]

4:                                                ; preds = %3
  %5 = getelementptr inbounds nuw i8, ptr %2, i64 1016
  %6 = load i32, ptr %5, align 8
  %7 = add i32 %6, 2
  %8 = getelementptr inbounds nuw i8, ptr %2, i64 1020
  %9 = load i32, ptr %8, align 4
  %10 = icmp sgt i32 %7, %9
  br i1 %10, label %34, label %11

11:                                               ; preds = %4
  %12 = getelementptr inbounds nuw i8, ptr %2, i64 1000
  %13 = load ptr, ptr %12, align 8
  %14 = sext i32 %6 to i64
  %15 = getelementptr inbounds i8, ptr %13, i64 %14
  %.0.copyload1 = load i16, ptr %15, align 1
  store i32 %7, ptr %5, align 8
  %16 = tail call i16 @llvm.bswap.i16(i16 %.0.copyload1)
  %17 = zext i16 %16 to i32
  br label %33

18:                                               ; preds = %3
  %19 = getelementptr inbounds nuw i8, ptr %2, i64 1016
  %20 = load i32, ptr %19, align 8
  %21 = add i32 %20, 4
  %22 = getelementptr inbounds nuw i8, ptr %2, i64 1020
  %23 = load i32, ptr %22, align 4
  %24 = icmp sgt i32 %21, %23
  br i1 %24, label %34, label %25

25:                                               ; preds = %18
  %26 = getelementptr inbounds nuw i8, ptr %2, i64 1000
  %27 = load ptr, ptr %26, align 8
  %28 = sext i32 %20 to i64
  %29 = getelementptr inbounds i8, ptr %27, i64 %28
  %.0.copyload = load i32, ptr %29, align 1
  store i32 %21, ptr %19, align 8
  %30 = tail call i32 @llvm.bswap.i32(i32 %.0.copyload)
  br label %33

31:                                               ; preds = %3
  %32 = getelementptr inbounds nuw i8, ptr %2, i64 368
  tail call void (ptr, ptr, ...) @pqInternalNotice(ptr noundef nonnull %32, ptr noundef nonnull @.str, i64 noundef %1) #19
  br label %34

33:                                               ; preds = %25, %11
  %storemerge = phi i32 [ %30, %25 ], [ %17, %11 ]
  store i32 %storemerge, ptr %0, align 4
  br label %34

34:                                               ; preds = %18, %4, %33, %31
  %.0 = phi i32 [ -1, %31 ], [ 0, %33 ], [ -1, %4 ], [ -1, %18 ]
  ret i32 %.0
}